; Function Attrs: nounwind sspstrong uwtable
define internal fastcc void @kvm_virtio_pci_vector_vq_release(ptr noundef %0, i32 noundef %1) unnamed_addr #0 {
  %3 = getelementptr i8, ptr %0, i64 34160
  %.val = load ptr, ptr %3, align 8
  %.not.i = icmp eq ptr %.val, null
  br i1 %.not.i, label %virtio_bus_get_device.exit, label %4

4:                                                ; preds = %2
  %5 = getelementptr inbounds nuw i8, ptr %.val, i64 16
  %6 = load ptr, ptr %5, align 8
  br label %virtio_bus_get_device.exit

virtio_bus_get_device.exit:                       ; preds = %2, %4
  %7 = phi ptr [ %6, %4 ], [ null, %2 ]
  %8 = icmp sgt i32 %1, 0
  br i1 %8, label %.lr.ph, label %._crit_edge

.lr.ph:                                           ; preds = %virtio_bus_get_device.exit, %10
  %.07 = phi i32 [ %11, %10 ], [ 0, %virtio_bus_get_device.exit ]
  %9 = tail call i32 @virtio_queue_get_num(ptr noundef %7, i32 noundef %.07) #15
  %.not = icmp eq i32 %9, 0
  br i1 %.not, label %._crit_edge, label %10

10:                                               ; preds = %.lr.ph
  tail call fastcc void @kvm_virtio_pci_vector_release_one(ptr noundef %0, i32 noundef %.07)
  %11 = add nuw nsw i32 %.07, 1
  %exitcond.not = icmp eq i32 %11, %1
  br i1 %exitcond.not, label %._crit_edge, label %.lr.ph, !llvm.loop !8

._crit_edge:                                      ; preds = %10, %.lr.ph, %virtio_bus_get_device.exit
  ret void
}